target datalayout = "e-m:e-p270:32:32-p271:32:32-p272:64:64-i64:64-i128:128-f80:128-n8:16:32:64-S128"
target triple = "x86_64-pc-linux-gnu"

%struct.b2ShapeId = type { i32, i16, i16 }
%struct.b2Vec2 = type { float, float }
%struct.b2Transform = type { %struct.b2Vec2, %struct.b2Rot }
%struct.b2Rot = type { float, float }
%struct.b2ChainShapeArray = type { ptr, i32, i32 }
%struct.b2ShapeArray = type { ptr, i32, i32 }
%struct.b2Filter = type { i64, i64, i32 }
%struct.b2Shape = type { i32, i32, i32, i32, i32, i32, float, float, float, float, float, i32, %struct.b2AABB, %struct.b2AABB, %struct.b2Vec2, i32, %struct.b2Filter, ptr, i32, %union.anon.0, i16, i8, i8, i8, i8 }
%struct.b2AABB = type { %struct.b2Vec2, %struct.b2Vec2 }
%union.anon.0 = type { %struct.b2Polygon }
%struct.b2Polygon = type { [8 x %struct.b2Vec2], [8 x %struct.b2Vec2], %struct.b2Vec2, float, i32 }
%struct.b2World = type { %struct.b2ArenaAllocator, %struct.b2BroadPhase, %struct.b2ConstraintGraph, %struct.b2IdPool, %struct.b2BodyArray, %struct.b2IdPool, %struct.b2SolverSetArray, %struct.b2IdPool, %struct.b2JointArray, %struct.b2IdPool, %struct.b2ContactArray, %struct.b2IdPool, %struct.b2IslandArray, %struct.b2IdPool, %struct.b2IdPool, %struct.b2ShapeArray, %struct.b2ChainShapeArray, %struct.b2SensorArray, %struct.b2TaskContextArray, %struct.b2SensorTaskContextArray, %struct.b2BodyMoveEventArray, %struct.b2SensorBeginTouchEventArray, %struct.b2ContactBeginTouchEventArray, [2 x %struct.b2SensorEndTouchEventArray], [2 x %struct.b2ContactEndTouchEventArray], i32, %struct.b2ContactHitEventArray, %struct.b2BitSet, %struct.b2BitSet, %struct.b2BitSet, i64, i32, %struct.b2Vec2, float, float, float, float, float, float, float, float, ptr, ptr, i16, %struct.b2Profile, ptr, ptr, ptr, ptr, i32, ptr, ptr, ptr, ptr, ptr, float, i32, i32, i16, i8, i8, i8, i8, i8, i8 }
%struct.b2ArenaAllocator = type { ptr, i32, i32, i32, i32, %struct.b2ArenaEntryArray }
%struct.b2ArenaEntryArray = type { ptr, i32, i32 }
%struct.b2BroadPhase = type { [3 x %struct.b2DynamicTree], i32, %struct.b2HashSet, %struct.b2IntArray, ptr, ptr, i32, %struct.b2AtomicInt, %struct.b2HashSet }
%struct.b2DynamicTree = type { ptr, i32, i32, i32, i32, i32, ptr, ptr, ptr, ptr, i32 }
%struct.b2IntArray = type { ptr, i32, i32 }
%struct.b2AtomicInt = type { i32 }
%struct.b2HashSet = type { ptr, i32, i32 }
%struct.b2ConstraintGraph = type { [12 x %struct.b2GraphColor] }
%struct.b2GraphColor = type { %struct.b2BitSet, %struct.b2ContactSimArray, %struct.b2JointSimArray, %union.anon }
%struct.b2ContactSimArray = type { ptr, i32, i32 }
%struct.b2JointSimArray = type { ptr, i32, i32 }
%union.anon = type { ptr }
%struct.b2BodyArray = type { ptr, i32, i32 }
%struct.b2SolverSetArray = type { ptr, i32, i32 }
%struct.b2JointArray = type { ptr, i32, i32 }
%struct.b2ContactArray = type { ptr, i32, i32 }
%struct.b2IslandArray = type { ptr, i32, i32 }
%struct.b2IdPool = type { %struct.b2IntArray, i32 }
%struct.b2SensorArray = type { ptr, i32, i32 }
%struct.b2TaskContextArray = type { ptr, i32, i32 }
%struct.b2SensorTaskContextArray = type { ptr, i32, i32 }
%struct.b2BodyMoveEventArray = type { ptr, i32, i32 }
%struct.b2SensorBeginTouchEventArray = type { ptr, i32, i32 }
%struct.b2ContactBeginTouchEventArray = type { ptr, i32, i32 }
%struct.b2SensorEndTouchEventArray = type { ptr, i32, i32 }
%struct.b2ContactEndTouchEventArray = type { ptr, i32, i32 }
%struct.b2ContactHitEventArray = type { ptr, i32, i32 }
%struct.b2BitSet = type { ptr, i32, i32 }
%struct.b2Profile = type { float, float, float, float, float, float, float, float, float, float, float, float, float, float, float, float, float, float, float, float, float, float }
%struct.b2Body = type { [32 x i8], ptr, i32, i32, i32, i32, i32, i32, i32, i32, i32, i32, i32, i32, float, float, float, float, i32, i32, i32, i16, i8, i8, i8, i8 }
%struct.b2ShapeProxy = type { [8 x %struct.b2Vec2], i32, float }
%struct.b2SimplexCache = type { i16, [3 x i8], [3 x i8] }
%struct.b2DistanceInput = type { %struct.b2ShapeProxy, %struct.b2ShapeProxy, %struct.b2Transform, %struct.b2Transform, i8 }
%struct.b2DistanceOutput = type { %struct.b2Vec2, %struct.b2Vec2, float, i32, i32 }

@b2Transform_identity = internal constant %struct.b2Transform { %struct.b2Vec2 zeroinitializer, %struct.b2Rot { float 1.000000e+00, float 0.000000e+00 } }, align 4

; Function Attrs: inlinehint nounwind uwtable
define internal ptr @b2ShapeArray_Get(ptr noundef %0, i32 noundef %1) #7 {
  %3 = alloca ptr, align 8
  %4 = alloca i32, align 4
  store ptr %0, ptr %3, align 8, !tbaa !12
  store i32 %1, ptr %4, align 4, !tbaa !3
  %5 = load ptr, ptr %3, align 8, !tbaa !12
  %6 = getelementptr inbounds nuw %struct.b2ShapeArray, ptr %5, i32 0, i32 0
  %7 = load ptr, ptr %6, align 8, !tbaa !14
  %8 = load i32, ptr %4, align 4, !tbaa !3
  %9 = sext i32 %8 to i64
  %10 = getelementptr inbounds %struct.b2Shape, ptr %7, i64 %9
  ret ptr %10
}

; Function Attrs: inlinehint nounwind uwtable
define internal ptr @b2BodyArray_Get(ptr noundef %0, i32 noundef %1) #7 {
  %3 = alloca ptr, align 8
  %4 = alloca i32, align 4
  store ptr %0, ptr %3, align 8, !tbaa !12
  store i32 %1, ptr %4, align 4, !tbaa !3
  %5 = load ptr, ptr %3, align 8, !tbaa !12
  %6 = getelementptr inbounds nuw %struct.b2BodyArray, ptr %5, i32 0, i32 0
  %7 = load ptr, ptr %6, align 8, !tbaa !65
  %8 = load i32, ptr %4, align 4, !tbaa !3
  %9 = sext i32 %8 to i64
  %10 = getelementptr inbounds %struct.b2Body, ptr %7, i64 %9
  ret ptr %10
}

; Function Attrs: nounwind uwtable
define internal ptr @b2GetShape(ptr noundef %0, i64 %1) #0 {
  %3 = alloca %struct.b2ShapeId, align 4
  %4 = alloca ptr, align 8
  %5 = alloca i32, align 4
  %6 = alloca ptr, align 8
  store i64 %1, ptr %3, align 4
  store ptr %0, ptr %4, align 8, !tbaa !26
  call void @llvm.lifetime.start.p0(i64 4, ptr %5) #9
  %7 = getelementptr inbounds nuw %struct.b2ShapeId, ptr %3, i32 0, i32 0
  %8 = load i32, ptr %7, align 4, !tbaa !28
  %9 = sub nsw i32 %8, 1
  store i32 %9, ptr %5, align 4, !tbaa !3
  call void @llvm.lifetime.start.p0(i64 8, ptr %6) #9
  %10 = load ptr, ptr %4, align 8, !tbaa !26
  %11 = getelementptr inbounds nuw %struct.b2World, ptr %10, i32 0, i32 15
  %12 = load i32, ptr %5, align 4, !tbaa !3
  %13 = call ptr @b2ShapeArray_Get(ptr noundef %11, i32 noundef %12)
  store ptr %13, ptr %6, align 8, !tbaa !34
  %14 = load ptr, ptr %6, align 8, !tbaa !34
  call void @llvm.lifetime.end.p0(i64 8, ptr %6) #9
  call void @llvm.lifetime.end.p0(i64 4, ptr %5) #9
  ret ptr %14
}

; Function Attrs: nounwind uwtable
define <2 x float> @b2Shape_GetClosestPoint(i64 %0, <2 x float> %1) #3 {
  %3 = alloca %struct.b2Vec2, align 4
  %4 = alloca %struct.b2ShapeId, align 4
  %5 = alloca %struct.b2Vec2, align 4
  %6 = alloca ptr, align 8
  %7 = alloca i32, align 4
  %8 = alloca ptr, align 8
  %9 = alloca ptr, align 8
  %10 = alloca %struct.b2Transform, align 4
  %11 = alloca %struct.b2DistanceInput, align 4
  %12 = alloca %struct.b2ShapeProxy, align 4
  %13 = alloca %struct.b2ShapeProxy, align 4
  %14 = alloca %struct.b2SimplexCache, align 2
  %15 = alloca %struct.b2DistanceOutput, align 4
  store i64 %0, ptr %4, align 4
  store <2 x float> %1, ptr %5, align 4
  call void @llvm.lifetime.start.p0(i64 8, ptr %6) #9
  %16 = getelementptr inbounds nuw %struct.b2ShapeId, ptr %4, i32 0, i32 1
  %17 = load i16, ptr %16, align 4, !tbaa !30
  %18 = zext i16 %17 to i32
  %19 = call ptr @b2GetWorld(i32 noundef %18)
  store ptr %19, ptr %6, align 8, !tbaa !26
  %20 = load ptr, ptr %6, align 8, !tbaa !26
  %21 = icmp eq ptr %20, null
  br i1 %21, label %22, label %25

22:                                               ; preds = %2
  %23 = getelementptr inbounds nuw %struct.b2Vec2, ptr %3, i32 0, i32 0
  store float 0.000000e+00, ptr %23, align 4, !tbaa !55
  %24 = getelementptr inbounds nuw %struct.b2Vec2, ptr %3, i32 0, i32 1
  store float 0.000000e+00, ptr %24, align 4, !tbaa !56
  store i32 1, ptr %7, align 4
  br label %49

25:                                               ; preds = %2
  call void @llvm.lifetime.start.p0(i64 8, ptr %8) #9
  %26 = load ptr, ptr %6, align 8, !tbaa !26
  %27 = load i64, ptr %4, align 4
  %28 = call ptr @b2GetShape(ptr noundef %26, i64 %27)
  store ptr %28, ptr %8, align 8, !tbaa !34
  call void @llvm.lifetime.start.p0(i64 8, ptr %9) #9
  %29 = load ptr, ptr %6, align 8, !tbaa !26
  %30 = getelementptr inbounds nuw %struct.b2World, ptr %29, i32 0, i32 4
  %31 = load ptr, ptr %8, align 8, !tbaa !34
  %32 = getelementptr inbounds nuw %struct.b2Shape, ptr %31, i32 0, i32 1
  %33 = load i32, ptr %32, align 4, !tbaa !64
  %34 = call ptr @b2BodyArray_Get(ptr noundef %30, i32 noundef %33)
  store ptr %34, ptr %9, align 8, !tbaa !32
  call void @llvm.lifetime.start.p0(i64 16, ptr %10) #9
  %35 = load ptr, ptr %6, align 8, !tbaa !26
  %36 = load ptr, ptr %9, align 8, !tbaa !32
  %37 = call { <2 x float>, <2 x float> } @b2GetBodyTransformQuick(ptr noundef %35, ptr noundef %36)
  %38 = getelementptr inbounds nuw { <2 x float>, <2 x float> }, ptr %10, i32 0, i32 0
  %39 = extractvalue { <2 x float>, <2 x float> } %37, 0
  store <2 x float> %39, ptr %38, align 4
  %40 = getelementptr inbounds nuw { <2 x float>, <2 x float> }, ptr %10, i32 0, i32 1
  %41 = extractvalue { <2 x float>, <2 x float> } %37, 1
  store <2 x float> %41, ptr %40, align 4
  call void @llvm.lifetime.start.p0(i64 180, ptr %11) #9
  %42 = getelementptr inbounds nuw %struct.b2DistanceInput, ptr %11, i32 0, i32 0
  call void @llvm.lifetime.start.p0(i64 72, ptr %12) #9
  %43 = load ptr, ptr %8, align 8, !tbaa !34
  call void @b2MakeShapeDistanceProxy(ptr dead_on_unwind writable sret(%struct.b2ShapeProxy) align 4 %12, ptr noundef %43)
  call void @llvm.memcpy.p0.p0.i64(ptr align 4 %42, ptr align 4 %12, i64 72, i1 false), !tbaa.struct !297
  call void @llvm.lifetime.end.p0(i64 72, ptr %12) #9
  %44 = getelementptr inbounds nuw %struct.b2DistanceInput, ptr %11, i32 0, i32 1
  call void @llvm.lifetime.start.p0(i64 72, ptr %13) #9
  call void @b2MakeProxy(ptr dead_on_unwind writable sret(%struct.b2ShapeProxy) align 4 %13, ptr noundef %5, i32 noundef 1, float noundef 0.000000e+00)
  call void @llvm.memcpy.p0.p0.i64(ptr align 4 %44, ptr align 4 %13, i64 72, i1 false), !tbaa.struct !297
  call void @llvm.lifetime.end.p0(i64 72, ptr %13) #9
  %45 = getelementptr inbounds nuw %struct.b2DistanceInput, ptr %11, i32 0, i32 2
  call void @llvm.memcpy.p0.p0.i64(ptr align 4 %45, ptr align 4 %10, i64 16, i1 false), !tbaa.struct !199
  %46 = getelementptr inbounds nuw %struct.b2DistanceInput, ptr %11, i32 0, i32 3
  call void @llvm.memcpy.p0.p0.i64(ptr align 4 %46, ptr align 4 @b2Transform_identity, i64 16, i1 false), !tbaa.struct !199
  %47 = getelementptr inbounds nuw %struct.b2DistanceInput, ptr %11, i32 0, i32 4
  store i8 1, ptr %47, align 4, !tbaa !298
  call void @llvm.lifetime.start.p0(i64 8, ptr %14) #9
  call void @llvm.memset.p0.i64(ptr align 2 %14, i8 0, i64 8, i1 false)
  call void @llvm.lifetime.start.p0(i64 28, ptr %15) #9
  call void @b2ShapeDistance(ptr dead_on_unwind writable sret(%struct.b2DistanceOutput) align 4 %15, ptr noundef %14, ptr noundef %11, ptr noundef null, i32 noundef 0)
  %48 = getelementptr inbounds nuw %struct.b2DistanceOutput, ptr %15, i32 0, i32 0
  call void @llvm.memcpy.p0.p0.i64(ptr align 4 %3, ptr align 4 %48, i64 8, i1 false), !tbaa.struct !173
  store i32 1, ptr %7, align 4
  call void @llvm.lifetime.end.p0(i64 28, ptr %15) #9
  call void @llvm.lifetime.end.p0(i64 8, ptr %14) #9
  call void @llvm.lifetime.end.p0(i64 180, ptr %11) #9
  call void @llvm.lifetime.end.p0(i64 16, ptr %10) #9
  call void @llvm.lifetime.end.p0(i64 8, ptr %9) #9
  call void @llvm.lifetime.end.p0(i64 8, ptr %8) #9
  br label %49

49:                                               ; preds = %25, %22
  call void @llvm.lifetime.end.p0(i64 8, ptr %6) #9
  %50 = load <2 x float>, ptr %3, align 4
  ret <2 x float> %50
}