; Function Attrs: nounwind uwtable
define <2 x float> @b2Shape_GetClosestPoint(i64 %0, <2 x float> %1) local_unnamed_addr #3 {
  %3 = alloca %struct.b2Vec2, align 8
  %4 = alloca %struct.b2DistanceInput, align 4
  %5 = alloca %struct.b2ShapeProxy, align 4
  %6 = alloca %struct.b2SimplexCache, align 8
  %7 = alloca %struct.b2DistanceOutput, align 8
  %.sroa.2.0.extract.shift = lshr i64 %0, 32
  store <2 x float> %1, ptr %3, align 8
  %8 = trunc nuw i64 %.sroa.2.0.extract.shift to i32
  %9 = and i32 %8, 65535
  %10 = tail call ptr @b2GetWorld(i32 noundef %9) #10
  %11 = icmp eq ptr %10, null
  br i1 %11, label %29, label %12

12:                                               ; preds = %2
  %13 = getelementptr i8, ptr %10, i64 1256
  %.val = load ptr, ptr %13, align 8, !tbaa !14
  %14 = shl i64 %0, 32
  %sext.i = add i64 %14, -4294967296
  %15 = ashr exact i64 %sext.i, 32
  %16 = getelementptr inbounds %struct.b2Shape, ptr %.val, i64 %15
  %17 = getelementptr inbounds nuw i8, ptr %10, i64 1032
  %18 = getelementptr inbounds nuw i8, ptr %16, i64 4
  %19 = load i32, ptr %18, align 4, !tbaa !34
  %.val10 = load ptr, ptr %17, align 8, !tbaa !35
  %20 = sext i32 %19 to i64
  %21 = getelementptr inbounds %struct.b2Body, ptr %.val10, i64 %20
  %22 = tail call { <2 x float>, <2 x float> } @b2GetBodyTransformQuick(ptr noundef nonnull %10, ptr noundef %21) #10
  %23 = extractvalue { <2 x float>, <2 x float> } %22, 0
  %24 = extractvalue { <2 x float>, <2 x float> } %22, 1
  call void @llvm.lifetime.start.p0(i64 180, ptr nonnull %4) #10
  call void @b2MakeShapeDistanceProxy(ptr dead_on_unwind nonnull writable sret(%struct.b2ShapeProxy) align 4 %4, ptr noundef %16)
  %25 = getelementptr inbounds nuw i8, ptr %4, i64 72
  call void @llvm.lifetime.start.p0(i64 72, ptr nonnull %5) #10
  call void @b2MakeProxy(ptr dead_on_unwind nonnull writable sret(%struct.b2ShapeProxy) align 4 %5, ptr noundef nonnull %3, i32 noundef 1, float noundef 0.000000e+00) #10
  call void @llvm.memcpy.p0.p0.i64(ptr noundef nonnull align 4 dereferenceable(72) %25, ptr noundef nonnull align 4 dereferenceable(72) %5, i64 72, i1 false), !tbaa.struct !231
  call void @llvm.lifetime.end.p0(i64 72, ptr nonnull %5) #10
  %26 = getelementptr inbounds nuw i8, ptr %4, i64 144
  store <2 x float> %23, ptr %26, align 4
  %.sroa.4.0..sroa_idx = getelementptr inbounds nuw i8, ptr %4, i64 152
  store <2 x float> %24, ptr %.sroa.4.0..sroa_idx, align 4
  %27 = getelementptr inbounds nuw i8, ptr %4, i64 160
  call void @llvm.memcpy.p0.p0.i64(ptr noundef nonnull align 4 dereferenceable(16) %27, ptr noundef nonnull align 4 dereferenceable(16) @b2Transform_identity, i64 16, i1 false), !tbaa.struct !169
  %28 = getelementptr inbounds nuw i8, ptr %4, i64 176
  store i8 1, ptr %28, align 4, !tbaa !232
  call void @llvm.lifetime.start.p0(i64 8, ptr nonnull %6) #10
  store i64 0, ptr %6, align 8
  call void @llvm.lifetime.start.p0(i64 28, ptr nonnull %7) #10
  call void @b2ShapeDistance(ptr dead_on_unwind nonnull writable sret(%struct.b2DistanceOutput) align 4 %7, ptr noundef nonnull %6, ptr noundef nonnull %4, ptr noundef null, i32 noundef 0) #10
  %.sroa.08.0.copyload = load <2 x float>, ptr %7, align 8
  call void @llvm.lifetime.end.p0(i64 28, ptr nonnull %7) #10
  call void @llvm.lifetime.end.p0(i64 8, ptr nonnull %6) #10
  call void @llvm.lifetime.end.p0(i64 180, ptr nonnull %4) #10
  br label %29

29:                                               ; preds = %2, %12
  %.sroa.08.0 = phi <2 x float> [ %.sroa.08.0.copyload, %12 ], [ zeroinitializer, %2 ]
  ret <2 x float> %.sroa.08.0
}